; Function Attrs: mustprogress nofree norecurse nosync nounwind willreturn memory(argmem: write) uwtable
define hidden void @_ZN4cvc58internal6theory11quantifiers15QuantAttributesC2Ev(ptr noundef nonnull align 8 dereferenceable(96) initializes((8, 12), (16, 24)) %0) unnamed_addr #4 align 2 personality ptr @__gxx_personality_v0 {
  %2 = getelementptr inbounds nuw i8, ptr %0, i64 8
  store i32 0, ptr %2, align 8, !tbaa !20
  %3 = getelementptr inbounds nuw i8, ptr %0, i64 16
  store ptr null, ptr %3, align 8, !tbaa !25
  %4 = getelementptr inbounds nuw i8, ptr %0, i64 24
  store ptr %2, ptr %4, align 8, !tbaa !26
  %5 = getelementptr inbounds nuw i8, ptr %0, i64 32
  store ptr %2, ptr %5, align 8, !tbaa !27
  %6 = getelementptr inbounds nuw i8, ptr %0, i64 40
  store i64 0, ptr %6, align 8, !tbaa !28
  %7 = getelementptr inbounds nuw i8, ptr %0, i64 56
  store i32 0, ptr %7, align 8, !tbaa !20
  %8 = getelementptr inbounds nuw i8, ptr %0, i64 64
  store ptr null, ptr %8, align 8, !tbaa !25
  %9 = getelementptr inbounds nuw i8, ptr %0, i64 72
  store ptr %7, ptr %9, align 8, !tbaa !26
  %10 = getelementptr inbounds nuw i8, ptr %0, i64 80
  store ptr %7, ptr %10, align 8, !tbaa !27
  %11 = getelementptr inbounds nuw i8, ptr %0, i64 88
  store i64 0, ptr %11, align 8, !tbaa !28
  ret void
}